; Function Attrs: nounwind uwtable
define range(i32 0, 4) i32 @PQpingParams(ptr noundef readonly captures(none) %0, ptr noundef readonly captures(none) %1, i32 noundef %2) local_unnamed_addr #0 {
  %4 = tail call ptr @PQconnectStartParams(ptr noundef %0, ptr noundef %1, i32 noundef %2)
  %.not.i = icmp eq ptr %4, null
  br i1 %.not.i, label %PQfinish.exit, label %5

5:                                                ; preds = %3
  %6 = getelementptr inbounds nuw i8, ptr %4, i64 434
  %7 = load i8, ptr %6, align 2, !range !13, !noundef !14
  %8 = trunc nuw i8 %7 to i1
  br i1 %8, label %9, label %23

9:                                                ; preds = %5
  %10 = getelementptr inbounds nuw i8, ptr %4, i64 416
  %11 = load i32, ptr %10, align 8
  %.not9.i = icmp eq i32 %11, 1
  br i1 %.not9.i, label %.thread.i, label %12

12:                                               ; preds = %9
  %13 = tail call i32 @pqConnectDBComplete(ptr noundef nonnull %4)
  %.pr.i = load i32, ptr %10, align 8
  %.not10.i = icmp eq i32 %.pr.i, 1
  br i1 %.not10.i, label %.thread.i, label %23

.thread.i:                                        ; preds = %12, %9
  %14 = getelementptr inbounds nuw i8, ptr %4, i64 808
  %15 = load i8, ptr %14, align 8, !range !13, !noundef !14
  %16 = trunc nuw i8 %15 to i1
  br i1 %16, label %23, label %17

17:                                               ; preds = %.thread.i
  %18 = getelementptr inbounds nuw i8, ptr %4, i64 428
  %19 = tail call i64 @strlen(ptr noundef nonnull dereferenceable(1) %18) #26
  %.not11.i = icmp eq i64 %19, 5
  br i1 %.not11.i, label %20, label %23

20:                                               ; preds = %17
  %21 = tail call i32 @strcmp(ptr noundef nonnull dereferenceable(1) %18, ptr noundef nonnull dereferenceable(6) @.str.82) #26
  %22 = icmp eq i32 %21, 0
  %..i = zext i1 %22 to i32
  br label %23

23:                                               ; preds = %5, %12, %.thread.i, %17, %20
  %.0.i.ph = phi i32 [ %..i, %20 ], [ 2, %17 ], [ 0, %.thread.i ], [ 0, %12 ], [ 3, %5 ]
  tail call void @pqClosePGconn(ptr noundef nonnull %4)
  tail call fastcc void @freePGconn(ptr noundef %4)
  br label %PQfinish.exit

PQfinish.exit:                                    ; preds = %3, %23
  %.0.i8 = phi i32 [ %.0.i.ph, %23 ], [ 3, %3 ]
  ret i32 %.0.i8
}